; Function Attrs: nofree norecurse nosync nounwind memory(argmem: readwrite) uwtable
define hidden noundef zeroext i1 @je_hpdata_purge_next(ptr noundef readonly captures(none) %0, ptr noundef captures(none) %1, ptr noundef writeonly captures(none) %2, ptr noundef writeonly captures(none) %3) local_unnamed_addr #5 {
  %5 = getelementptr inbounds nuw i8, ptr %1, i64 80
  %6 = load i64, ptr %5, align 8, !tbaa !40
  %7 = icmp eq i64 %6, 512
  br i1 %7, label %fb_srange_iter.exit.thread, label %8

8:                                                ; preds = %4
  %9 = getelementptr inbounds nuw i8, ptr %1, i64 16
  %10 = lshr i64 %6, 6
  %11 = and i64 %6, 63
  %12 = getelementptr inbounds nuw i64, ptr %9, i64 %10
  %13 = load i64, ptr %12, align 8, !tbaa !33
  %notmask.i4.i = shl nsw i64 -1, %11
  %.039.i5.i = and i64 %13, %notmask.i4.i
  %14 = icmp eq i64 %.039.i5.i, 0
  br i1 %14, label %.lr.ph.i, label %fb_find_impl.exit10.i

.lr.ph.i:                                         ; preds = %8, %17
  %.038.i716.i = phi i64 [ %15, %17 ], [ %10, %8 ]
  %15 = add nuw nsw i64 %.038.i716.i, 1
  %16 = icmp eq i64 %15, 8
  br i1 %16, label %fb_srange_iter.exit.thread, label %17

17:                                               ; preds = %.lr.ph.i
  %18 = getelementptr inbounds nuw i64, ptr %9, i64 %15
  %19 = load i64, ptr %18, align 8, !tbaa !33
  %20 = icmp eq i64 %19, 0
  br i1 %20, label %.lr.ph.i, label %fb_find_impl.exit10.i, !llvm.loop !34

fb_find_impl.exit10.i:                            ; preds = %17, %8
  %.140.i6.lcssa.i = phi i64 [ %.039.i5.i, %8 ], [ %19, %17 ]
  %.038.i7.lcssa.i = phi i64 [ %10, %8 ], [ %15, %17 ]
  %21 = tail call range(i64 0, 65) i64 @llvm.cttz.i64(i64 range(i64 1, 0) %.140.i6.lcssa.i, i1 true)
  %22 = shl i64 %.038.i7.lcssa.i, 6
  %23 = or disjoint i64 %22, %21
  %.not.i = icmp eq i64 %23, 512
  br i1 %.not.i, label %fb_srange_iter.exit.thread, label %24

24:                                               ; preds = %fb_find_impl.exit10.i
  %25 = and i64 %.038.i7.lcssa.i, 288230376151711743
  %26 = getelementptr inbounds nuw i64, ptr %9, i64 %25
  %27 = load i64, ptr %26, align 8, !tbaa !33
  %28 = xor i64 %27, -1
  %notmask.i.i = shl nsw i64 -1, %21
  %.039.i.i = and i64 %notmask.i.i, %28
  %29 = icmp eq i64 %.039.i.i, 0
  br i1 %29, label %.lr.ph19.i, label %._crit_edge.i

.lr.ph19.i:                                       ; preds = %24, %32
  %.038.i18.i = phi i64 [ %30, %32 ], [ %25, %24 ]
  %30 = add nuw nsw i64 %.038.i18.i, 1
  %31 = icmp eq i64 %30, 8
  br i1 %31, label %.loopexit, label %32

32:                                               ; preds = %.lr.ph19.i
  %33 = getelementptr inbounds nuw i64, ptr %9, i64 %30
  %34 = load i64, ptr %33, align 8, !tbaa !33
  %35 = icmp eq i64 %34, -1
  br i1 %35, label %.lr.ph19.i, label %._crit_edge.loopexit.i, !llvm.loop !34

._crit_edge.loopexit.i:                           ; preds = %32
  %36 = xor i64 %34, -1
  br label %._crit_edge.i

._crit_edge.i:                                    ; preds = %._crit_edge.loopexit.i, %24
  %.140.i.lcssa.i = phi i64 [ %.039.i.i, %24 ], [ %36, %._crit_edge.loopexit.i ]
  %.038.i.lcssa.i = phi i64 [ %25, %24 ], [ %30, %._crit_edge.loopexit.i ]
  %37 = tail call range(i64 0, 65) i64 @llvm.cttz.i64(i64 range(i64 1, 0) %.140.i.lcssa.i, i1 true)
  %38 = shl i64 %.038.i.lcssa.i, 6
  %39 = or disjoint i64 %38, %37
  %.1.i.i = tail call i64 @llvm.umin.i64(i64 %39, i64 512)
  br label %.loopexit

.loopexit:                                        ; preds = %.lr.ph19.i, %._crit_edge.i
  %.0.i.i = phi i64 [ %.1.i.i, %._crit_edge.i ], [ 512, %.lr.ph19.i ]
  %40 = sub nsw i64 %.0.i.i, %23
  %.val = load ptr, ptr %0, align 8, !tbaa !26
  %41 = ptrtoint ptr %.val to i64
  %42 = shl i64 %23, 12
  %43 = add i64 %42, %41
  %44 = inttoptr i64 %43 to ptr
  store ptr %44, ptr %2, align 8, !tbaa !25
  %45 = shl i64 %40, 12
  store i64 %45, ptr %3, align 8, !tbaa !33
  store i64 %.0.i.i, ptr %5, align 8, !tbaa !40
  %46 = load i64, ptr %1, align 8, !tbaa !38
  %47 = add i64 %46, %40
  store i64 %47, ptr %1, align 8, !tbaa !38
  br label %fb_srange_iter.exit.thread

fb_srange_iter.exit.thread:                       ; preds = %.lr.ph.i, %fb_find_impl.exit10.i, %.loopexit, %4
  %.0 = phi i1 [ false, %4 ], [ true, %.loopexit ], [ false, %fb_find_impl.exit10.i ], [ false, %.lr.ph.i ]
  ret i1 %.0
}